ccopy_reg
_reconstructor
p1
(cmatplotlib.font_manager
FontManager
p2
c__builtin__
object
p3
NtRp4
(dp5
S'ttflist'
p6
(lp7
g1
(cmatplotlib.font_manager
FontEntry
p8
g3
NtRp9
(dp10
S'style'
p11
Voblique
p12
sS'name'
p13
S'Bitstream Vera Sans'
p14
sS'weight'
p15
I700
sS'stretch'
p16
Vnormal
p17
sS'variant'
p18
g17
sS'fname'
p19
V/n/sw/fasrcsw/apps/Core/Anaconda/2.1.0-fasrc01/x/lib/python2.7/site-packages/matplotlib/mpl-data/fonts/ttf/VeraBI.ttf
p20
sS'size'
p21
Vscalable
p22
sbag1
(g8
g3
NtRp23
(dp24
g11
g17
sg13
S'cmb10'
p25
sg15
I400
sg16
g17
sg18
g17
sg19
V/n/sw/fasrcsw/apps/Core/Anaconda/2.1.0-fasrc01/x/lib/python2.7/site-packages/matplotlib/mpl-data/fonts/ttf/cmb10.ttf
p26
sg21
g22
sbag1
(g8
g3
NtRp27
(dp28
g11
g17
sg13
S'STIXSizeTwoSym'
p29
sg15
I700
sg16
g17
sg18
g17
sg19
V/n/sw/fasrcsw/apps/Core/Anaconda/2.1.0-fasrc01/x/lib/python2.7/site-packages/matplotlib/mpl-data/fonts/ttf/STIXSizTwoSymBol.ttf
p30
sg21
g22
sbag1
(g8
g3
NtRp31
(dp32
g11
g17
sg13
S'STIXSizeOneSym'
p33
sg15
I400
sg16
g17
sg18
g17
sg19
V/n/sw/fasrcsw/apps/Core/Anaconda/2.1.0-fasrc01/x/lib/python2.7/site-packages/matplotlib/mpl-data/fonts/ttf/STIXSizOneSymReg.ttf
p34
sg21
g22
sbag1
(g8
g3
NtRp35
(dp36
g11
g17
sg13
S'STIXSizeOneSym'
p37
sg15
I700
sg16
g17
sg18
g17
sg19
V/n/sw/fasrcsw/apps/Core/Anaconda/2.1.0-fasrc01/x/lib/python2.7/site-packages/matplotlib/mpl-data/fonts/ttf/STIXSizOneSymBol.ttf
p38
sg21
g22
sbag1
(g8
g3
NtRp39
(dp40
g11
g17
sg13
S'cmex10'
p41
sg15
I400
sg16
g17
sg18
g17
sg19
V/n/sw/fasrcsw/apps/Core/Anaconda/2.1.0-fasrc01/x/lib/python2.7/site-packages/matplotlib/mpl-data/fonts/ttf/cmex10.ttf
p42
sg21
g22
sbag1
(g8
g3
NtRp43
(dp44
g11
g12
sg13
S'Bitstream Vera Sans'
p45
sg15
I400
sg16
g17
sg18
g17
sg19
V/n/sw/fasrcsw/apps/Core/Anaconda/2.1.0-fasrc01/x/lib/python2.7/site-packages/matplotlib/mpl-data/fonts/ttf/VeraIt.ttf
p46
sg21
g22
sbag1
(g8
g3
NtRp47
(dp48
g11
g17
sg13
S'STIXNonUnicode'
p49
sg15
I700
sg16
g17
sg18
g17
sg19
V/n/sw/fasrcsw/apps/Core/Anaconda/2.1.0-fasrc01/x/lib/python2.7/site-packages/matplotlib/mpl-data/fonts/ttf/STIXNonUniBol.ttf
p50
sg21
g22
sbag1
(g8
g3
NtRp51
(dp52
g11
g17
sg13
S'Bitstream Vera Sans'
p53
sg15
I700
sg16
g17
sg18
g17
sg19
V/n/sw/fasrcsw/apps/Core/Anaconda/2.1.0-fasrc01/x/lib/python2.7/site-packages/matplotlib/mpl-data/fonts/ttf/VeraBd.ttf
p54
sg21
g22
sbag1
(g8
g3
NtRp55
(dp56
g11
g17
sg13
S'Bitstream Vera Serif'
p57
sg15
I700
sg16
g17
sg18
g17
sg19
V/n/sw/fasrcsw/apps/Core/Anaconda/2.1.0-fasrc01/x/lib/python2.7/site-packages/matplotlib/mpl-data/fonts/ttf/VeraSeBd.ttf
p58
sg21
g22
sbag1
(g8
g3
NtRp59
(dp60
g11
g12
sg13
S'Bitstream Vera Sans Mono'
p61
sg15
I400
sg16
g17
sg18
g17
sg19
V/n/sw/fasrcsw/apps/Core/Anaconda/2.1.0-fasrc01/x/lib/python2.7/site-packages/matplotlib/mpl-data/fonts/ttf/VeraMoIt.ttf
p62
sg21
g22
sbag1
(g8
g3
NtRp63
(dp64
g11
g17
sg13
S'STIXSizeFourSym'
p65
sg15
I400
sg16
g17
sg18
g17
sg19
V/n/sw/fasrcsw/apps/Core/Anaconda/2.1.0-fasrc01/x/lib/python2.7/site-packages/matplotlib/mpl-data/fonts/ttf/STIXSizFourSymReg.ttf
p66
sg21
g22
sbag1
(g8
g3
NtRp67
(dp68
g11
g17
sg13
S'cmtt10'
p69
sg15
I400
sg16
g17
sg18
g17
sg19
V/n/sw/fasrcsw/apps/Core/Anaconda/2.1.0-fasrc01/x/lib/python2.7/site-packages/matplotlib/mpl-data/fonts/ttf/cmtt10.ttf
p70
sg21
g22
sbag1
(g8
g3
NtRp71
(dp72
g11
g12
sg13
S'Bitstream Vera Sans Mono'
p73
sg15
I700
sg16
g17
sg18
g17
sg19
V/n/sw/fasrcsw/apps/Core/Anaconda/2.1.0-fasrc01/x/lib/python2.7/site-packages/matplotlib/mpl-data/fonts/ttf/VeraMoBI.ttf
p74
sg21
g22
sbag1
(g8
g3
NtRp75
(dp76
g11
Vitalic
p77
sg13
S'STIXNonUnicode'
p78
sg15
I400
sg16
g17
sg18
g17
sg19
V/n/sw/fasrcsw/apps/Core/Anaconda/2.1.0-fasrc01/x/lib/python2.7/site-packages/matplotlib/mpl-data/fonts/ttf/STIXNonUniIta.ttf
p79
sg21
g22
sbag1
(g8
g3
NtRp80
(dp81
g11
g77
sg13
S'STIXGeneral'
p82
sg15
I700
sg16
g17
sg18
g17
sg19
V/n/sw/fasrcsw/apps/Core/Anaconda/2.1.0-fasrc01/x/lib/python2.7/site-packages/matplotlib/mpl-data/fonts/ttf/STIXGeneralBolIta.ttf
p83
sg21
g22
sbag1
(g8
g3
NtRp84
(dp85
g11
g17
sg13
S'STIXSizeThreeSym'
p86
sg15
I700
sg16
g17
sg18
g17
sg19
V/n/sw/fasrcsw/apps/Core/Anaconda/2.1.0-fasrc01/x/lib/python2.7/site-packages/matplotlib/mpl-data/fonts/ttf/STIXSizThreeSymBol.ttf
p87
sg21
g22
sbag1
(g8
g3
NtRp88
(dp89
g11
g17
sg13
S'cmsy10'
p90
sg15
I400
sg16
g17
sg18
g17
sg19
V/n/sw/fasrcsw/apps/Core/Anaconda/2.1.0-fasrc01/x/lib/python2.7/site-packages/matplotlib/mpl-data/fonts/ttf/cmsy10.ttf
p91
sg21
g22
sbag1
(g8
g3
NtRp92
(dp93
g11
g17
sg13
S'Bitstream Vera Sans Mono'
p94
sg15
I400
sg16
g17
sg18
g17
sg19
V/n/sw/fasrcsw/apps/Core/Anaconda/2.1.0-fasrc01/x/lib/python2.7/site-packages/matplotlib/mpl-data/fonts/ttf/VeraMono.ttf
p95
sg21
g22
sbag1
(g8
g3
NtRp96
(dp97
g11
g17
sg13
S'STIXGeneral'
p98
sg15
I700
sg16
g17
sg18
g17
sg19
V/n/sw/fasrcsw/apps/Core/Anaconda/2.1.0-fasrc01/x/lib/python2.7/site-packages/matplotlib/mpl-data/fonts/ttf/STIXGeneralBol.ttf
p99
sg21
g22
sbag1
(g8
g3
NtRp100
(dp101
g11
g17
sg13
S'cmr10'
p102
sg15
I400
sg16
g17
sg18
g17
sg19
V/n/sw/fasrcsw/apps/Core/Anaconda/2.1.0-fasrc01/x/lib/python2.7/site-packages/matplotlib/mpl-data/fonts/ttf/cmr10.ttf
p103
sg21
g22
sbag1
(g8
g3
NtRp104
(dp105
g11
g17
sg13
S'STIXNonUnicode'
p106
sg15
I400
sg16
g17
sg18
g17
sg19
V/n/sw/fasrcsw/apps/Core/Anaconda/2.1.0-fasrc01/x/lib/python2.7/site-packages/matplotlib/mpl-data/fonts/ttf/STIXNonUni.ttf
p107
sg21
g22
sbag1
(g8
g3
NtRp108
(dp109
g11
g17
sg13
S'STIXSizeTwoSym'
p110
sg15
I400
sg16
g17
sg18
g17
sg19
V/n/sw/fasrcsw/apps/Core/Anaconda/2.1.0-fasrc01/x/lib/python2.7/site-packages/matplotlib/mpl-data/fonts/ttf/STIXSizTwoSymReg.ttf
p111
sg21
g22
sbag1
(g8
g3
NtRp112
(dp113
g11
g17
sg13
S'STIXGeneral'
p114
sg15
I400
sg16
g17
sg18
g17
sg19
V/n/sw/fasrcsw/apps/Core/Anaconda/2.1.0-fasrc01/x/lib/python2.7/site-packages/matplotlib/mpl-data/fonts/ttf/STIXGeneral.ttf
p115
sg21
g22
sbag1
(g8
g3
NtRp116
(dp117
g11
g17
sg13
S'Bitstream Vera Sans Mono'
p118
sg15
I700
sg16
g17
sg18
g17
sg19
V/n/sw/fasrcsw/apps/Core/Anaconda/2.1.0-fasrc01/x/lib/python2.7/site-packages/matplotlib/mpl-data/fonts/ttf/VeraMoBd.ttf
p119
sg21
g22
sbag1
(g8
g3
NtRp120
(dp121
g11
g77
sg13
S'STIXGeneral'
p122
sg15
I400
sg16
g17
sg18
g17
sg19
V/n/sw/fasrcsw/apps/Core/Anaconda/2.1.0-fasrc01/x/lib/python2.7/site-packages/matplotlib/mpl-data/fonts/ttf/STIXGeneralItalic.ttf
p123
sg21
g22
sbag1
(g8
g3
NtRp124
(dp125
g11
g17
sg13
S'STIXSizeFourSym'
p126
sg15
I700
sg16
g17
sg18
g17
sg19
V/n/sw/fasrcsw/apps/Core/Anaconda/2.1.0-fasrc01/x/lib/python2.7/site-packages/matplotlib/mpl-data/fonts/ttf/STIXSizFourSymBol.ttf
p127
sg21
g22
sbag1
(g8
g3
NtRp128
(dp129
g11
g17
sg13
S'STIXSizeThreeSym'
p130
sg15
I400
sg16
g17
sg18
g17
sg19
V/n/sw/fasrcsw/apps/Core/Anaconda/2.1.0-fasrc01/x/lib/python2.7/site-packages/matplotlib/mpl-data/fonts/ttf/STIXSizThreeSymReg.ttf
p131
sg21
g22
sbag1
(g8
g3
NtRp132
(dp133
g11
g17
sg13
S'STIXSizeFiveSym'
p134
sg15
I400
sg16
g17
sg18
g17
sg19
V/n/sw/fasrcsw/apps/Core/Anaconda/2.1.0-fasrc01/x/lib/python2.7/site-packages/matplotlib/mpl-data/fonts/ttf/STIXSizFiveSymReg.ttf
p135
sg21
g22
sbag1
(g8
g3
NtRp136
(dp137
g11
g17
sg13
S'Bitstream Vera Sans'
p138
sg15
I400
sg16
g17
sg18
g17
sg19
V/n/sw/fasrcsw/apps/Core/Anaconda/2.1.0-fasrc01/x/lib/python2.7/site-packages/matplotlib/mpl-data/fonts/ttf/Vera.ttf
p139
sg21
g22
sbag1
(g8
g3
NtRp140
(dp141
g11
g77
sg13
S'STIXNonUnicode'
p142
sg15
I700
sg16
g17
sg18
g17
sg19
V/n/sw/fasrcsw/apps/Core/Anaconda/2.1.0-fasrc01/x/lib/python2.7/site-packages/matplotlib/mpl-data/fonts/ttf/STIXNonUniBolIta.ttf
p143
sg21
g22
sbag1
(g8
g3
NtRp144
(dp145
g11
g17
sg13
S'cmss10'
p146
sg15
I400
sg16
g17
sg18
g17
sg19
V/n/sw/fasrcsw/apps/Core/Anaconda/2.1.0-fasrc01/x/lib/python2.7/site-packages/matplotlib/mpl-data/fonts/ttf/cmss10.ttf
p147
sg21
g22
sbag1
(g8
g3
NtRp148
(dp149
g11
g17
sg13
S'cmmi10'
p150
sg15
I400
sg16
g17
sg18
g17
sg19
V/n/sw/fasrcsw/apps/Core/Anaconda/2.1.0-fasrc01/x/lib/python2.7/site-packages/matplotlib/mpl-data/fonts/ttf/cmmi10.ttf
p151
sg21
g22
sbag1
(g8
g3
NtRp152
(dp153
g11
g17
sg13
S'Bitstream Vera Serif'
p154
sg15
I400
sg16
g17
sg18
g17
sg19
V/n/sw/fasrcsw/apps/Core/Anaconda/2.1.0-fasrc01/x/lib/python2.7/site-packages/matplotlib/mpl-data/fonts/ttf/VeraSe.ttf
p155
sg21
g22
sbag1
(g8
g3
NtRp156
(dp157
g11
g12
sg13
S'DejaVu LGC Sans Mono'
p158
sg15
I400
sg16
g17
sg18
g17
sg19
V/usr/share/fonts/dejavu/DejaVuLGCSansMono-Oblique.ttf
p159
sg21
g22
sbag1
(g8
g3
NtRp160
(dp161
g11
g17
sg13
S'DejaVu Sans'
p162
sg15
I400
sg16
g17
sg18
g17
sg19
V/usr/share/fonts/dejavu/DejaVuSans.ttf
p163
sg21
g22
sbag1
(g8
g3
NtRp164
(dp165
g11
g17
sg13
S'DejaVu Sans'
p166
sg15
I200
sg16
g17
sg18
g17
sg19
V/usr/share/fonts/dejavu/DejaVuSans-ExtraLight.ttf
p167
sg21
g22
sbag1
(g8
g3
NtRp168
(dp169
g11
g12
sg13
S'DejaVu LGC Sans Mono'
p170
sg15
I700
sg16
g17
sg18
g17
sg19
V/usr/share/fonts/dejavu/DejaVuLGCSansMono-BoldOblique.ttf
p171
sg21
g22
sbag1
(g8
g3
NtRp172
(dp173
g11
g12
sg13
S'DejaVu Sans'
p174
sg15
I400
sg16
Vcondensed
p175
sg18
g17
sg19
V/usr/share/fonts/dejavu/DejaVuSansCondensed-Oblique.ttf
p176
sg21
g22
sbag1
(g8
g3
NtRp177
(dp178
g11
g17
sg13
S'DejaVu Sans'
p179
sg15
I700
sg16
g175
sg18
g17
sg19
V/usr/share/fonts/dejavu/DejaVuSansCondensed-Bold.ttf
p180
sg21
g22
sbag1
(g8
g3
NtRp181
(dp182
g11
g77
sg13
S'Liberation Sans'
p183
sg15
I400
sg16
g17
sg18
g17
sg19
V/usr/share/fonts/liberation/LiberationSans-Italic.ttf
p184
sg21
g22
sbag1
(g8
g3
NtRp185
(dp186
g11
g77
sg13
S'Liberation Sans'
p187
sg15
I700
sg16
g17
sg18
g17
sg19
V/usr/share/fonts/liberation/LiberationSans-BoldItalic.ttf
p188
sg21
g22
sbag1
(g8
g3
NtRp189
(dp190
g11
g17
sg13
S'DejaVu Sans'
p191
sg15
I400
sg16
g175
sg18
g17
sg19
V/usr/share/fonts/dejavu/DejaVuSansCondensed.ttf
p192
sg21
g22
sbag1
(g8
g3
NtRp193
(dp194
g11
g17
sg13
S'DejaVu LGC Sans Mono'
p195
sg15
I700
sg16
g17
sg18
g17
sg19
V/usr/share/fonts/dejavu/DejaVuLGCSansMono-Bold.ttf
p196
sg21
g22
sbag1
(g8
g3
NtRp197
(dp198
g11
g17
sg13
S'Liberation Sans'
p199
sg15
I400
sg16
g17
sg18
g17
sg19
V/usr/share/fonts/liberation/LiberationSans-Regular.ttf
p200
sg21
g22
sbag1
(g8
g3
NtRp201
(dp202
g11
g17
sg13
S'DejaVu Sans'
p203
sg15
I700
sg16
g17
sg18
g17
sg19
V/usr/share/fonts/dejavu/DejaVuSans-Bold.ttf
p204
sg21
g22
sbag1
(g8
g3
NtRp205
(dp206
g11
g12
sg13
S'DejaVu Sans'
p207
sg15
I700
sg16
g175
sg18
g17
sg19
V/usr/share/fonts/dejavu/DejaVuSansCondensed-BoldOblique.ttf
p208
sg21
g22
sbag1
(g8
g3
NtRp209
(dp210
g11
g17
sg13
S'DejaVu LGC Sans Mono'
p211
sg15
I400
sg16
g17
sg18
g17
sg19
V/usr/share/fonts/dejavu/DejaVuLGCSansMono.ttf
p212
sg21
g22
sbag1
(g8
g3
NtRp213
(dp214
g11
g17
sg13
S'Liberation Sans'
p215
sg15
I700
sg16
g17
sg18
g17
sg19
V/usr/share/fonts/liberation/LiberationSans-Bold.ttf
p216
sg21
g22
sbag1
(g8
g3
NtRp217
(dp218
g11
g12
sg13
S'DejaVu Sans'
p219
sg15
I400
sg16
g17
sg18
g17
sg19
V/usr/share/fonts/dejavu/DejaVuSans-Oblique.ttf
p220
sg21
g22
sbag1
(g8
g3
NtRp221
(dp222
g11
g12
sg13
S'DejaVu Sans'
p223
sg15
I700
sg16
g17
sg18
g17
sg19
V/usr/share/fonts/dejavu/DejaVuSans-BoldOblique.ttf
p224
sg21
g22
sbasS'defaultFamily'
p225
(dp226
Vafm
p227
VHelvetica
p228
sVttf
p229
VBitstream Vera Sans
p230
ssS'ttffiles'
p231
(lp232
g20
ag26
ag30
ag34
ag38
ag42
ag46
ag50
ag54
ag58
ag62
ag66
ag70
ag74
ag79
ag83
ag87
ag91
ag95
ag99
ag103
ag107
ag111
ag115
ag119
ag123
ag127
ag131
ag135
ag139
ag143
ag147
ag151
ag155
ag159
ag163
ag167
ag171
ag176
ag180
ag184
ag188
ag192
ag196
ag200
ag204
ag208
ag212
ag216
ag220
ag224
asS'_FontManager__default_weight'
p233
Vnormal
p234
sS'_version'
p235
I101
sS'default_size'
p236
NsS'defaultFont'
p237
(dp238
g227
V/n/sw/fasrcsw/apps/Core/Anaconda/2.1.0-fasrc01/x/lib/python2.7/site-packages/matplotlib/mpl-data/fonts/pdfcorefonts/Helvetica-BoldOblique.afm
p239
sg229
g139
ssS'afmfiles'
p240
(lp241
g239
aV/n/sw/fasrcsw/apps/Core/Anaconda/2.1.0-fasrc01/x/lib/python2.7/site-packages/matplotlib/mpl-data/fonts/pdfcorefonts/Courier.afm
p242
aV/n/sw/fasrcsw/apps/Core/Anaconda/2.1.0-fasrc01/x/lib/python2.7/site-packages/matplotlib/mpl-data/fonts/afm/pcrr8a.afm
p243
aV/n/sw/fasrcsw/apps/Core/Anaconda/2.1.0-fasrc01/x/lib/python2.7/site-packages/matplotlib/mpl-data/fonts/afm/cmmi10.afm
p244
aV/n/sw/fasrcsw/apps/Core/Anaconda/2.1.0-fasrc01/x/lib/python2.7/site-packages/matplotlib/mpl-data/fonts/afm/phvbo8an.afm
p245
aV/n/sw/fasrcsw/apps/Core/Anaconda/2.1.0-fasrc01/x/lib/python2.7/site-packages/matplotlib/mpl-data/fonts/afm/phvl8a.afm
p246
aV/n/sw/fasrcsw/apps/Core/Anaconda/2.1.0-fasrc01/x/lib/python2.7/site-packages/matplotlib/mpl-data/fonts/pdfcorefonts/Times-Bold.afm
p247
aV/n/sw/fasrcsw/apps/Core/Anaconda/2.1.0-fasrc01/x/lib/python2.7/site-packages/matplotlib/mpl-data/fonts/afm/cmtt10.afm
p248
aV/n/sw/fasrcsw/apps/Core/Anaconda/2.1.0-fasrc01/x/lib/python2.7/site-packages/matplotlib/mpl-data/fonts/afm/pplbi8a.afm
p249
aV/n/sw/fasrcsw/apps/Core/Anaconda/2.1.0-fasrc01/x/lib/python2.7/site-packages/matplotlib/mpl-data/fonts/afm/pcrro8a.afm
p250
aV/n/sw/fasrcsw/apps/Core/Anaconda/2.1.0-fasrc01/x/lib/python2.7/site-packages/matplotlib/mpl-data/fonts/afm/cmsy10.afm
p251
aV/n/sw/fasrcsw/apps/Core/Anaconda/2.1.0-fasrc01/x/lib/python2.7/site-packages/matplotlib/mpl-data/fonts/pdfcorefonts/Courier-Oblique.afm
p252
aV/n/sw/fasrcsw/apps/Core/Anaconda/2.1.0-fasrc01/x/lib/python2.7/site-packages/matplotlib/mpl-data/fonts/afm/pplb8a.afm
p253
aV/n/sw/fasrcsw/apps/Core/Anaconda/2.1.0-fasrc01/x/lib/python2.7/site-packages/matplotlib/mpl-data/fonts/afm/pplri8a.afm
p254
aV/n/sw/fasrcsw/apps/Core/Anaconda/2.1.0-fasrc01/x/lib/python2.7/site-packages/matplotlib/mpl-data/fonts/afm/pagko8a.afm
p255
aV/n/sw/fasrcsw/apps/Core/Anaconda/2.1.0-fasrc01/x/lib/python2.7/site-packages/matplotlib/mpl-data/fonts/afm/phvlo8a.afm
p256
aV/n/sw/fasrcsw/apps/Core/Anaconda/2.1.0-fasrc01/x/lib/python2.7/site-packages/matplotlib/mpl-data/fonts/pdfcorefonts/Symbol.afm
p257
aV/n/sw/fasrcsw/apps/Core/Anaconda/2.1.0-fasrc01/x/lib/python2.7/site-packages/matplotlib/mpl-data/fonts/afm/pbkdi8a.afm
p258
aV/n/sw/fasrcsw/apps/Core/Anaconda/2.1.0-fasrc01/x/lib/python2.7/site-packages/matplotlib/mpl-data/fonts/afm/pncr8a.afm
p259
aV/n/sw/fasrcsw/apps/Core/Anaconda/2.1.0-fasrc01/x/lib/python2.7/site-packages/matplotlib/mpl-data/fonts/afm/putri8a.afm
p260
aV/n/sw/fasrcsw/apps/Core/Anaconda/2.1.0-fasrc01/x/lib/python2.7/site-packages/matplotlib/mpl-data/fonts/afm/pbkli8a.afm
p261
aV/n/sw/fasrcsw/apps/Core/Anaconda/2.1.0-fasrc01/x/lib/python2.7/site-packages/matplotlib/mpl-data/fonts/pdfcorefonts/Courier-BoldOblique.afm
p262
aV/n/sw/fasrcsw/apps/Core/Anaconda/2.1.0-fasrc01/x/lib/python2.7/site-packages/matplotlib/mpl-data/fonts/afm/ptmr8a.afm
p263
aV/n/sw/fasrcsw/apps/Core/Anaconda/2.1.0-fasrc01/x/lib/python2.7/site-packages/matplotlib/mpl-data/fonts/afm/pagk8a.afm
p264
aV/n/sw/fasrcsw/apps/Core/Anaconda/2.1.0-fasrc01/x/lib/python2.7/site-packages/matplotlib/mpl-data/fonts/afm/phvbo8a.afm
p265
aV/n/sw/fasrcsw/apps/Core/Anaconda/2.1.0-fasrc01/x/lib/python2.7/site-packages/matplotlib/mpl-data/fonts/afm/pbkd8a.afm
p266
aV/n/sw/fasrcsw/apps/Core/Anaconda/2.1.0-fasrc01/x/lib/python2.7/site-packages/matplotlib/mpl-data/fonts/afm/ptmri8a.afm
p267
aV/n/sw/fasrcsw/apps/Core/Anaconda/2.1.0-fasrc01/x/lib/python2.7/site-packages/matplotlib/mpl-data/fonts/pdfcorefonts/Times-BoldItalic.afm
p268
aV/n/sw/fasrcsw/apps/Core/Anaconda/2.1.0-fasrc01/x/lib/python2.7/site-packages/matplotlib/mpl-data/fonts/pdfcorefonts/Helvetica.afm
p269
aV/n/sw/fasrcsw/apps/Core/Anaconda/2.1.0-fasrc01/x/lib/python2.7/site-packages/matplotlib/mpl-data/fonts/afm/phvr8an.afm
p270
aV/n/sw/fasrcsw/apps/Core/Anaconda/2.1.0-fasrc01/x/lib/python2.7/site-packages/matplotlib/mpl-data/fonts/afm/pzcmi8a.afm
p271
aV/n/sw/fasrcsw/apps/Core/Anaconda/2.1.0-fasrc01/x/lib/python2.7/site-packages/matplotlib/mpl-data/fonts/afm/ptmb8a.afm
p272
aV/n/sw/fasrcsw/apps/Core/Anaconda/2.1.0-fasrc01/x/lib/python2.7/site-packages/matplotlib/mpl-data/fonts/afm/pbkl8a.afm
p273
aV/n/sw/fasrcsw/apps/Core/Anaconda/2.1.0-fasrc01/x/lib/python2.7/site-packages/matplotlib/mpl-data/fonts/pdfcorefonts/Helvetica-Bold.afm
p274
aV/n/sw/fasrcsw/apps/Core/Anaconda/2.1.0-fasrc01/x/lib/python2.7/site-packages/matplotlib/mpl-data/fonts/afm/pzdr.afm
p275
aV/n/sw/fasrcsw/apps/Core/Anaconda/2.1.0-fasrc01/x/lib/python2.7/site-packages/matplotlib/mpl-data/fonts/afm/phvb8a.afm
p276
aV/n/sw/fasrcsw/apps/Core/Anaconda/2.1.0-fasrc01/x/lib/python2.7/site-packages/matplotlib/mpl-data/fonts/afm/phvb8an.afm
p277
aV/n/sw/fasrcsw/apps/Core/Anaconda/2.1.0-fasrc01/x/lib/python2.7/site-packages/matplotlib/mpl-data/fonts/afm/cmr10.afm
p278
aV/n/sw/fasrcsw/apps/Core/Anaconda/2.1.0-fasrc01/x/lib/python2.7/site-packages/matplotlib/mpl-data/fonts/afm/putb8a.afm
p279
aV/n/sw/fasrcsw/apps/Core/Anaconda/2.1.0-fasrc01/x/lib/python2.7/site-packages/matplotlib/mpl-data/fonts/pdfcorefonts/Courier-Bold.afm
p280
aV/n/sw/fasrcsw/apps/Core/Anaconda/2.1.0-fasrc01/x/lib/python2.7/site-packages/matplotlib/mpl-data/fonts/afm/psyr.afm
p281
aV/n/sw/fasrcsw/apps/Core/Anaconda/2.1.0-fasrc01/x/lib/python2.7/site-packages/matplotlib/mpl-data/fonts/afm/phvr8a.afm
p282
aV/n/sw/fasrcsw/apps/Core/Anaconda/2.1.0-fasrc01/x/lib/python2.7/site-packages/matplotlib/mpl-data/fonts/pdfcorefonts/ZapfDingbats.afm
p283
aV/n/sw/fasrcsw/apps/Core/Anaconda/2.1.0-fasrc01/x/lib/python2.7/site-packages/matplotlib/mpl-data/fonts/afm/pplr8a.afm
p284
aV/n/sw/fasrcsw/apps/Core/Anaconda/2.1.0-fasrc01/x/lib/python2.7/site-packages/matplotlib/mpl-data/fonts/afm/pcrbo8a.afm
p285
aV/n/sw/fasrcsw/apps/Core/Anaconda/2.1.0-fasrc01/x/lib/python2.7/site-packages/matplotlib/mpl-data/fonts/afm/putr8a.afm
p286
aV/n/sw/fasrcsw/apps/Core/Anaconda/2.1.0-fasrc01/x/lib/python2.7/site-packages/matplotlib/mpl-data/fonts/afm/phvro8a.afm
p287
aV/n/sw/fasrcsw/apps/Core/Anaconda/2.1.0-fasrc01/x/lib/python2.7/site-packages/matplotlib/mpl-data/fonts/afm/phvro8an.afm
p288
aV/n/sw/fasrcsw/apps/Core/Anaconda/2.1.0-fasrc01/x/lib/python2.7/site-packages/matplotlib/mpl-data/fonts/afm/pncb8a.afm
p289
aV/n/sw/fasrcsw/apps/Core/Anaconda/2.1.0-fasrc01/x/lib/python2.7/site-packages/matplotlib/mpl-data/fonts/afm/pagdo8a.afm
p290
aV/n/sw/fasrcsw/apps/Core/Anaconda/2.1.0-fasrc01/x/lib/python2.7/site-packages/matplotlib/mpl-data/fonts/afm/ptmbi8a.afm
p291
aV/n/sw/fasrcsw/apps/Core/Anaconda/2.1.0-fasrc01/x/lib/python2.7/site-packages/matplotlib/mpl-data/fonts/afm/pagd8a.afm
p292
aV/n/sw/fasrcsw/apps/Core/Anaconda/2.1.0-fasrc01/x/lib/python2.7/site-packages/matplotlib/mpl-data/fonts/afm/pncri8a.afm
p293
aV/n/sw/fasrcsw/apps/Core/Anaconda/2.1.0-fasrc01/x/lib/python2.7/site-packages/matplotlib/mpl-data/fonts/pdfcorefonts/Times-Roman.afm
p294
aV/n/sw/fasrcsw/apps/Core/Anaconda/2.1.0-fasrc01/x/lib/python2.7/site-packages/matplotlib/mpl-data/fonts/afm/pcrb8a.afm
p295
aV/n/sw/fasrcsw/apps/Core/Anaconda/2.1.0-fasrc01/x/lib/python2.7/site-packages/matplotlib/mpl-data/fonts/pdfcorefonts/Helvetica-Oblique.afm
p296
aV/n/sw/fasrcsw/apps/Core/Anaconda/2.1.0-fasrc01/x/lib/python2.7/site-packages/matplotlib/mpl-data/fonts/pdfcorefonts/Times-Italic.afm
p297
aV/n/sw/fasrcsw/apps/Core/Anaconda/2.1.0-fasrc01/x/lib/python2.7/site-packages/matplotlib/mpl-data/fonts/afm/pncbi8a.afm
p298
aV/n/sw/fasrcsw/apps/Core/Anaconda/2.1.0-fasrc01/x/lib/python2.7/site-packages/matplotlib/mpl-data/fonts/afm/cmex10.afm
p299
aV/n/sw/fasrcsw/apps/Core/Anaconda/2.1.0-fasrc01/x/lib/python2.7/site-packages/matplotlib/mpl-data/fonts/afm/putbi8a.afm
p300
aV/usr/share/fonts/default/ghostscript/fcyri.afm
p301
aV/usr/share/fonts/default/Type1/n021023l.afm
p302
aV/usr/share/fonts/default/Type1/p052003l.afm
p303
aV/usr/share/fonts/default/Type1/b018032l.afm
p304
aV/usr/share/fonts/default/Type1/n019064l.afm
p305
aV/usr/share/fonts/default/Type1/p052024l.afm
p306
aV/usr/share/fonts/default/Type1/n019003l.afm
p307
aV/usr/share/fonts/default/Type1/n021003l.afm
p308
aV/usr/share/fonts/default/Type1/b018035l.afm
p309
aV/usr/share/fonts/default/ghostscript/u003043t.afm
p310
aV/usr/share/fonts/default/Type1/n022023l.afm
p311
aV/usr/share/fonts/default/Type1/n021024l.afm
p312
aV/usr/share/fonts/default/Type1/a010033l.afm
p313
aV/usr/share/fonts/default/Type1/p052004l.afm
p314
aV/usr/share/fonts/default/Type1/n019023l.afm
p315
aV/usr/share/fonts/default/Type1/n022004l.afm
p316
aV/usr/share/fonts/default/Type1/n019063l.afm
p317
aV/usr/share/fonts/default/Type1/n019043l.afm
p318
aV/usr/share/fonts/default/ghostscript/bchri.afm
p319
aV/usr/share/fonts/default/ghostscript/bchb.afm
p320
aV/usr/share/fonts/default/Type1/n019044l.afm
p321
aV/usr/share/fonts/default/Type1/n021004l.afm
p322
aV/usr/share/fonts/default/ghostscript/bchbi.afm
p323
aV/usr/share/fonts/default/Type1/n019024l.afm
p324
aV/usr/share/fonts/default/Type1/a010013l.afm
p325
aV/usr/share/fonts/default/ghostscript/fcyr.afm
p326
aV/usr/share/fonts/default/ghostscript/bchr.afm
p327
aV/usr/share/fonts/default/Type1/a010035l.afm
p328
aV/usr/share/fonts/default/Type1/z003034l.afm
p329
aV/usr/share/fonts/default/Type1/c059036l.afm
p330
aV/usr/share/fonts/default/Type1/n019004l.afm
p331
aV/usr/share/fonts/default/Type1/s050000l.afm
p332
aV/usr/share/fonts/default/Type1/b018012l.afm
p333
aV/usr/share/fonts/default/Type1/d050000l.afm
p334
aV/usr/share/fonts/default/Type1/c059013l.afm
p335
aV/usr/share/fonts/default/Type1/n022024l.afm
p336
aV/usr/share/fonts/default/Type1/a010015l.afm
p337
aV/usr/share/fonts/default/Type1/c059033l.afm
p338
aV/usr/share/fonts/default/Type1/n022003l.afm
p339
aV/usr/share/fonts/default/ghostscript/u004006t.afm
p340
aV/usr/share/fonts/default/Type1/p052023l.afm
p341
aV/usr/share/fonts/default/Type1/b018015l.afm
p342
aV/usr/share/fonts/default/Type1/c059016l.afm
p343
asS'afmlist'
p344
(lp345
g1
(g8
g3
NtRp346
(dp347
g11
Vitalic
p348
sg13
S'Helvetica'
p349
sg15
I700
sg16
Vnormal
p350
sg18
g350
sg19
g239
sg21
Vscalable
p351
sbag1
(g8
g3
NtRp352
(dp353
g11
g350
sg13
S'Courier'
p354
sg15
I500
sg16
g350
sg18
g350
sg19
g242
sg21
g351
sbag1
(g8
g3
NtRp355
(dp356
g11
g350
sg13
S'Courier'
p357
sg15
I500
sg16
g350
sg18
g350
sg19
g243
sg21
g351
sbag1
(g8
g3
NtRp358
(dp359
g11
g348
sg13
S'Computer Modern'
p360
sg15
I500
sg16
g350
sg18
g350
sg19
g244
sg21
g351
sbag1
(g8
g3
NtRp361
(dp362
g11
g348
sg13
S'Helvetica'
p363
sg15
I700
sg16
Vcondensed
p364
sg18
g350
sg19
g245
sg21
g351
sbag1
(g8
g3
NtRp365
(dp366
g11
g350
sg13
S'Helvetica'
p367
sg15
I200
sg16
g350
sg18
g350
sg19
g246
sg21
g351
sbag1
(g8
g3
NtRp368
(dp369
g11
g350
sg13
S'Times'
p370
sg15
I700
sg16
g350
sg18
g350
sg19
g247
sg21
g351
sbag1
(g8
g3
NtRp371
(dp372
g11
g350
sg13
S'Computer Modern'
p373
sg15
I500
sg16
g350
sg18
g350
sg19
g248
sg21
g351
sbag1
(g8
g3
NtRp374
(dp375
g11
g348
sg13
S'Palatino'
p376
sg15
I700
sg16
g350
sg18
g350
sg19
g249
sg21
g351
sbag1
(g8
g3
NtRp377
(dp378
g11
g348
sg13
S'Courier'
p379
sg15
I500
sg16
g350
sg18
g350
sg19
g250
sg21
g351
sbag1
(g8
g3
NtRp380
(dp381
g11
g348
sg13
S'Computer Modern'
p382
sg15
I500
sg16
g350
sg18
g350
sg19
g251
sg21
g351
sbag1
(g8
g3
NtRp383
(dp384
g11
g348
sg13
S'Courier'
p385
sg15
I500
sg16
g350
sg18
g350
sg19
g252
sg21
g351
sbag1
(g8
g3
NtRp386
(dp387
g11
g350
sg13
S'Palatino'
p388
sg15
I700
sg16
g350
sg18
g350
sg19
g253
sg21
g351
sbag1
(g8
g3
NtRp389
(dp390
g11
g348
sg13
S'Palatino'
p391
sg15
I500
sg16
g350
sg18
g350
sg19
g254
sg21
g351
sbag1
(g8
g3
NtRp392
(dp393
g11
g348
sg13
S'ITC Avant Garde Gothic'
p394
sg15
I400
sg16
g350
sg18
g350
sg19
g255
sg21
g351
sbag1
(g8
g3
NtRp395
(dp396
g11
g348
sg13
S'Helvetica'
p397
sg15
I200
sg16
g350
sg18
g350
sg19
g256
sg21
g351
sbag1
(g8
g3
NtRp398
(dp399
g11
g350
sg13
S'Symbol'
p400
sg15
I500
sg16
g350
sg18
g350
sg19
g257
sg21
g351
sbag1
(g8
g3
NtRp401
(dp402
g11
g348
sg13
S'ITC Bookman'
p403
sg15
I600
sg16
g350
sg18
g350
sg19
g258
sg21
g351
sbag1
(g8
g3
NtRp404
(dp405
g11
g350
sg13
S'New Century Schoolbook'
p406
sg15
I500
sg16
g350
sg18
g350
sg19
g259
sg21
g351
sbag1
(g8
g3
NtRp407
(dp408
g11
g348
sg13
S'Utopia'
p409
sg15
I400
sg16
g350
sg18
g350
sg19
g260
sg21
g351
sbag1
(g8
g3
NtRp410
(dp411
g11
g348
sg13
S'ITC Bookman'
p412
sg15
I200
sg16
g350
sg18
g350
sg19
g261
sg21
g351
sbag1
(g8
g3
NtRp413
(dp414
g11
g348
sg13
S'Courier'
p415
sg15
I700
sg16
g350
sg18
g350
sg19
g262
sg21
g351
sbag1
(g8
g3
NtRp416
(dp417
g11
g350
sg13
S'Times'
p418
sg15
I500
sg16
g350
sg18
g350
sg19
g263
sg21
g351
sbag1
(g8
g3
NtRp419
(dp420
g11
g350
sg13
S'ITC Avant Garde Gothic'
p421
sg15
I400
sg16
g350
sg18
g350
sg19
g264
sg21
g351
sbag1
(g8
g3
NtRp422
(dp423
g11
g348
sg13
S'Helvetica'
p424
sg15
I700
sg16
g350
sg18
g350
sg19
g265
sg21
g351
sbag1
(g8
g3
NtRp425
(dp426
g11
g350
sg13
S'ITC Bookman'
p427
sg15
I600
sg16
g350
sg18
g350
sg19
g266
sg21
g351
sbag1
(g8
g3
NtRp428
(dp429
g11
g348
sg13
S'Times'
p430
sg15
I500
sg16
g350
sg18
g350
sg19
g267
sg21
g351
sbag1
(g8
g3
NtRp431
(dp432
g11
g348
sg13
S'Times'
p433
sg15
I700
sg16
g350
sg18
g350
sg19
g268
sg21
g351
sbag1
(g8
g3
NtRp434
(dp435
g11
g350
sg13
S'Helvetica'
p436
sg15
I500
sg16
g350
sg18
g350
sg19
g269
sg21
g351
sbag1
(g8
g3
NtRp437
(dp438
g11
g350
sg13
S'Helvetica'
p439
sg15
I500
sg16
g364
sg18
g350
sg19
g270
sg21
g351
sbag1
(g8
g3
NtRp440
(dp441
g11
g348
sg13
S'ITC Zapf Chancery'
p442
sg15
I500
sg16
g350
sg18
g350
sg19
g271
sg21
g351
sbag1
(g8
g3
NtRp443
(dp444
g11
g350
sg13
S'Times'
p445
sg15
I700
sg16
g350
sg18
g350
sg19
g272
sg21
g351
sbag1
(g8
g3
NtRp446
(dp447
g11
g350
sg13
S'ITC Bookman'
p448
sg15
I200
sg16
g350
sg18
g350
sg19
g273
sg21
g351
sbag1
(g8
g3
NtRp449
(dp450
g11
g350
sg13
S'Helvetica'
p451
sg15
I700
sg16
g350
sg18
g350
sg19
g274
sg21
g351
sbag1
(g8
g3
NtRp452
(dp453
g11
g350
sg13
S'ITC Zapf Dingbats'
p454
sg15
I500
sg16
g350
sg18
g350
sg19
g275
sg21
g351
sbag1
(g8
g3
NtRp455
(dp456
g11
g350
sg13
S'Helvetica'
p457
sg15
I700
sg16
g350
sg18
g350
sg19
g276
sg21
g351
sbag1
(g8
g3
NtRp458
(dp459
g11
g350
sg13
S'Helvetica'
p460
sg15
I700
sg16
g364
sg18
g350
sg19
g277
sg21
g351
sbag1
(g8
g3
NtRp461
(dp462
g11
g350
sg13
S'Computer Modern'
p463
sg15
I500
sg16
g350
sg18
g350
sg19
g278
sg21
g351
sbag1
(g8
g3
NtRp464
(dp465
g11
g350
sg13
S'Utopia'
p466
sg15
I700
sg16
g350
sg18
g350
sg19
g279
sg21
g351
sbag1
(g8
g3
NtRp467
(dp468
g11
g350
sg13
S'Courier'
p469
sg15
I700
sg16
g350
sg18
g350
sg19
g280
sg21
g351
sbag1
(g8
g3
NtRp470
(dp471
g11
g350
sg13
S'Symbol'
p472
sg15
I500
sg16
g350
sg18
g350
sg19
g281
sg21
g351
sbag1
(g8
g3
NtRp473
(dp474
g11
g350
sg13
S'Helvetica'
p475
sg15
I500
sg16
g350
sg18
g350
sg19
g282
sg21
g351
sbag1
(g8
g3
NtRp476
(dp477
g11
g350
sg13
S'ZapfDingbats'
p478
sg15
I500
sg16
g350
sg18
g350
sg19
g283
sg21
g351
sbag1
(g8
g3
NtRp479
(dp480
g11
g350
sg13
S'Palatino'
p481
sg15
I500
sg16
g350
sg18
g350
sg19
g284
sg21
g351
sbag1
(g8
g3
NtRp482
(dp483
g11
g348
sg13
S'Courier'
p484
sg15
I700
sg16
g350
sg18
g350
sg19
g285
sg21
g351
sbag1
(g8
g3
NtRp485
(dp486
g11
g350
sg13
S'Utopia'
p487
sg15
I400
sg16
g350
sg18
g350
sg19
g286
sg21
g351
sbag1
(g8
g3
NtRp488
(dp489
g11
g348
sg13
S'Helvetica'
p490
sg15
I500
sg16
g350
sg18
g350
sg19
g287
sg21
g351
sbag1
(g8
g3
NtRp491
(dp492
g11
g348
sg13
S'Helvetica'
p493
sg15
I500
sg16
g364
sg18
g350
sg19
g288
sg21
g351
sbag1
(g8
g3
NtRp494
(dp495
g11
g350
sg13
S'New Century Schoolbook'
p496
sg15
I700
sg16
g350
sg18
g350
sg19
g289
sg21
g351
sbag1
(g8
g3
NtRp497
(dp498
g11
g348
sg13
S'ITC Avant Garde Gothic'
p499
sg15
I600
sg16
g350
sg18
g350
sg19
g290
sg21
g351
sbag1
(g8
g3
NtRp500
(dp501
g11
g348
sg13
S'Times'
p502
sg15
I700
sg16
g350
sg18
g350
sg19
g291
sg21
g351
sbag1
(g8
g3
NtRp503
(dp504
g11
g350
sg13
S'ITC Avant Garde Gothic'
p505
sg15
I600
sg16
g350
sg18
g350
sg19
g292
sg21
g351
sbag1
(g8
g3
NtRp506
(dp507
g11
g348
sg13
S'New Century Schoolbook'
p508
sg15
I500
sg16
g350
sg18
g350
sg19
g293
sg21
g351
sbag1
(g8
g3
NtRp509
(dp510
g11
g350
sg13
S'Times'
p511
sg15
I500
sg16
g350
sg18
g350
sg19
g294
sg21
g351
sbag1
(g8
g3
NtRp512
(dp513
g11
g350
sg13
S'Courier'
p514
sg15
I700
sg16
g350
sg18
g350
sg19
g295
sg21
g351
sbag1
(g8
g3
NtRp515
(dp516
g11
g348
sg13
S'Helvetica'
p517
sg15
I500
sg16
g350
sg18
g350
sg19
g296
sg21
g351
sbag1
(g8
g3
NtRp518
(dp519
g11
g348
sg13
S'Times'
p520
sg15
I500
sg16
g350
sg18
g350
sg19
g297
sg21
g351
sbag1
(g8
g3
NtRp521
(dp522
g11
g348
sg13
S'New Century Schoolbook'
p523
sg15
I700
sg16
g350
sg18
g350
sg19
g298
sg21
g351
sbag1
(g8
g3
NtRp524
(dp525
g11
g350
sg13
S'Computer Modern'
p526
sg15
I500
sg16
g350
sg18
g350
sg19
g299
sg21
g351
sbag1
(g8
g3
NtRp527
(dp528
g11
g348
sg13
S'Utopia'
p529
sg15
I700
sg16
g350
sg18
g350
sg19
g300
sg21
g351
sbag1
(g8
g3
NtRp530
(dp531
g11
g348
sg13
S'Cyrillic'
p532
sg15
I500
sg16
g350
sg18
g350
sg19
g301
sg21
g351
sbag1
(g8
g3
NtRp533
(dp534
g11
g348
sg13
S'Nimbus Roman No9 L'
p535
sg15
I400
sg16
g350
sg18
g350
sg19
g302
sg21
g351
sbag1
(g8
g3
NtRp536
(dp537
g11
g350
sg13
S'URW Palladio L'
p538
sg15
I500
sg16
g350
sg18
g350
sg19
g303
sg21
g351
sbag1
(g8
g3
NtRp539
(dp540
g11
g348
sg13
S'URW Bookman L'
p541
sg15
I400
sg16
g350
sg18
g350
sg19
g304
sg21
g351
sbag1
(g8
g3
NtRp542
(dp543
g11
g348
sg13
S'Nimbus Sans L'
p544
sg15
I700
sg16
g364
sg18
g350
sg19
g305
sg21
g351
sbag1
(g8
g3
NtRp545
(dp546
g11
g348
sg13
S'URW Palladio L'
p547
sg15
I700
sg16
g350
sg18
g350
sg19
g306
sg21
g351
sbag1
(g8
g3
NtRp548
(dp549
g11
g350
sg13
S'Nimbus Sans L'
p550
sg15
I400
sg16
g350
sg18
g350
sg19
g307
sg21
g351
sbag1
(g8
g3
NtRp551
(dp552
g11
g350
sg13
S'Nimbus Roman No9 L'
p553
sg15
I400
sg16
g350
sg18
g350
sg19
g308
sg21
g351
sbag1
(g8
g3
NtRp554
(dp555
g11
g348
sg13
S'URW Bookman L'
p556
sg15
I700
sg16
g350
sg18
g350
sg19
g309
sg21
g351
sbag1
(g8
g3
NtRp557
(dp558
g11
g350
sg13
S'URW Antiqua T'
p559
sg15
I400
sg16
g364
sg18
g350
sg19
g310
sg21
g351
sbag1
(g8
g3
NtRp560
(dp561
g11
g348
sg13
S'Nimbus Mono L'
p562
sg15
I400
sg16
g350
sg18
g350
sg19
g311
sg21
g351
sbag1
(g8
g3
NtRp563
(dp564
g11
g348
sg13
S'Nimbus Roman No9 L'
p565
sg15
I700
sg16
g350
sg18
g350
sg19
g312
sg21
g351
sbag1
(g8
g3
NtRp566
(dp567
g11
g348
sg13
S'URW Gothic L'
p568
sg15
I400
sg16
g350
sg18
g350
sg19
g313
sg21
g351
sbag1
(g8
g3
NtRp569
(dp570
g11
g350
sg13
S'URW Palladio L'
p571
sg15
I700
sg16
g350
sg18
g350
sg19
g314
sg21
g351
sbag1
(g8
g3
NtRp572
(dp573
g11
g348
sg13
S'Nimbus Sans L'
p574
sg15
I400
sg16
g350
sg18
g350
sg19
g315
sg21
g351
sbag1
(g8
g3
NtRp575
(dp576
g11
g350
sg13
S'Nimbus Mono L'
p577
sg15
I700
sg16
g350
sg18
g350
sg19
g316
sg21
g351
sbag1
(g8
g3
NtRp578
(dp579
g11
g348
sg13
S'Nimbus Sans L'
p580
sg15
I400
sg16
g364
sg18
g350
sg19
g317
sg21
g351
sbag1
(g8
g3
NtRp581
(dp582
g11
g350
sg13
S'Nimbus Sans L'
p583
sg15
I400
sg16
g364
sg18
g350
sg19
g318
sg21
g351
sbag1
(g8
g3
NtRp584
(dp585
g11
g348
sg13
S'Bitstream Charter'
p586
sg15
I400
sg16
g350
sg18
g350
sg19
g319
sg21
g351
sbag1
(g8
g3
NtRp587
(dp588
g11
g350
sg13
S'Bitstream Charter'
p589
sg15
I700
sg16
g350
sg18
g350
sg19
g320
sg21
g351
sbag1
(g8
g3
NtRp590
(dp591
g11
g350
sg13
S'Nimbus Sans L'
p592
sg15
I700
sg16
g364
sg18
g350
sg19
g321
sg21
g351
sbag1
(g8
g3
NtRp593
(dp594
g11
g350
sg13
S'Nimbus Roman No9 L'
p595
sg15
I700
sg16
g350
sg18
g350
sg19
g322
sg21
g351
sbag1
(g8
g3
NtRp596
(dp597
g11
g348
sg13
S'Bitstream Charter'
p598
sg15
I700
sg16
g350
sg18
g350
sg19
g323
sg21
g351
sbag1
(g8
g3
NtRp599
(dp600
g11
g348
sg13
S'Nimbus Sans L'
p601
sg15
I700
sg16
g350
sg18
g350
sg19
g324
sg21
g351
sbag1
(g8
g3
NtRp602
(dp603
g11
g350
sg13
S'URW Gothic L'
p604
sg15
I400
sg16
g350
sg18
g350
sg19
g325
sg21
g351
sbag1
(g8
g3
NtRp605
(dp606
g11
g350
sg13
S'Cyrillic'
p607
sg15
I500
sg16
g350
sg18
g350
sg19
g326
sg21
g351
sbag1
(g8
g3
NtRp608
(dp609
g11
g350
sg13
S'Bitstream Charter'
p610
sg15
I400
sg16
g350
sg18
g350
sg19
g327
sg21
g351
sbag1
(g8
g3
NtRp611
(dp612
g11
g348
sg13
S'URW Gothic L'
p613
sg15
I600
sg16
g350
sg18
g350
sg19
g328
sg21
g351
sbag1
(g8
g3
NtRp614
(dp615
g11
g348
sg13
S'URW Chancery L'
p616
sg15
I500
sg16
g350
sg18
g350
sg19
g329
sg21
g351
sbag1
(g8
g3
NtRp617
(dp618
g11
g348
sg13
S'Century Schoolbook L'
p619
sg15
I700
sg16
g350
sg18
g350
sg19
g330
sg21
g351
sbag1
(g8
g3
NtRp620
(dp621
g11
g350
sg13
S'Nimbus Sans L'
p622
sg15
I700
sg16
g350
sg18
g350
sg19
g331
sg21
g351
sbag1
(g8
g3
NtRp623
(dp624
g11
g350
sg13
S'Standard Symbols L'
p625
sg15
I400
sg16
g350
sg18
g350
sg19
g332
sg21
g351
sbag1
(g8
g3
NtRp626
(dp627
g11
g350
sg13
S'URW Bookman L'
p628
sg15
I400
sg16
g350
sg18
g350
sg19
g333
sg21
g351
sbag1
(g8
g3
NtRp629
(dp630
g11
g350
sg13
S'Dingbats'
p631
sg15
I400
sg16
g350
sg18
g350
sg19
g334
sg21
g351
sbag1
(g8
g3
NtRp632
(dp633
g11
g350
sg13
S'Century Schoolbook L'
p634
sg15
I500
sg16
g350
sg18
g350
sg19
g335
sg21
g351
sbag1
(g8
g3
NtRp635
(dp636
g11
g348
sg13
S'Nimbus Mono L'
p637
sg15
I700
sg16
g350
sg18
g350
sg19
g336
sg21
g351
sbag1
(g8
g3
NtRp638
(dp639
g11
g350
sg13
S'URW Gothic L'
p640
sg15
I600
sg16
g350
sg18
g350
sg19
g337
sg21
g351
sbag1
(g8
g3
NtRp641
(dp642
g11
g348
sg13
S'Century Schoolbook L'
p643
sg15
I400
sg16
g350
sg18
g350
sg19
g338
sg21
g351
sbag1
(g8
g3
NtRp644
(dp645
g11
g350
sg13
S'Nimbus Mono L'
p646
sg15
I400
sg16
g350
sg18
g350
sg19
g339
sg21
g351
sbag1
(g8
g3
NtRp647
(dp648
g11
g350
sg13
S'URW Grotesk T'
p649
sg15
I400
sg16
g350
sg18
g350
sg19
g340
sg21
g351
sbag1
(g8
g3
NtRp650
(dp651
g11
g348
sg13
S'URW Palladio L'
p652
sg15
I400
sg16
g350
sg18
g350
sg19
g341
sg21
g351
sbag1
(g8
g3
NtRp653
(dp654
g11
g350
sg13
S'URW Bookman L'
p655
sg15
I700
sg16
g350
sg18
g350
sg19
g342
sg21
g351
sbag1
(g8
g3
NtRp656
(dp657
g11
g350
sg13
S'Century Schoolbook L'
p658
sg15
I700
sg16
g350
sg18
g350
sg19
g343
sg21
g351
sbasb.